; Function Attrs: nounwind uwtable
define internal void @PredictorSub7_C(ptr noundef %0, ptr noundef %1, i32 noundef %2, ptr nocapture noundef writeonly %3) #1 {
  %5 = icmp sgt i32 %2, 0
  br i1 %5, label %.lr.ph.preheader, label %._crit_edge

.lr.ph.preheader:                                 ; preds = %4
  %wide.trip.count = zext nneg i32 %2 to i64
  br label %.lr.ph

.lr.ph:                                           ; preds = %.lr.ph.preheader, %.lr.ph
  %indvars.iv = phi i64 [ 0, %.lr.ph.preheader ], [ %indvars.iv.next, %.lr.ph ]
  %6 = getelementptr i32, ptr %0, i64 %indvars.iv
  %7 = getelementptr i8, ptr %6, i64 -4
  %8 = getelementptr inbounds i32, ptr %1, i64 %indvars.iv
  %9 = tail call i32 @VP8LPredictor7_C(ptr noundef %7, ptr noundef %8) #12
  %10 = load i32, ptr %6, align 4
  %11 = or i32 %10, 16711680
  %12 = and i32 %9, -16711936
  %13 = sub i32 %11, %12
  %14 = or i32 %10, 65280
  %15 = and i32 %9, 16711935
  %16 = sub i32 %14, %15
  %17 = and i32 %13, -16711936
  %18 = and i32 %16, 16711935
  %19 = or disjoint i32 %17, %18
  %20 = getelementptr inbounds i32, ptr %3, i64 %indvars.iv
  store i32 %19, ptr %20, align 4
  %indvars.iv.next = add nuw nsw i64 %indvars.iv, 1
  %exitcond.not = icmp eq i64 %indvars.iv.next, %wide.trip.count
  br i1 %exitcond.not, label %._crit_edge, label %.lr.ph, !llvm.loop !31

._crit_edge:                                      ; preds = %.lr.ph, %4
  ret void
}